target datalayout = "e-m:e-p270:32:32-p271:32:32-p272:64:64-i64:64-i128:128-f80:128-n8:16:32:64-S128"
target triple = "x86_64-pc-linux-gnu"

; Function Attrs: mustprogress nounwind uwtable
define noundef i32 @_ZN6icu_7718CollationFastLatin10lookupUTF8EPKtiPKhRii(ptr noundef %0, i32 noundef %1, ptr noundef %2, ptr noundef nonnull align 4 dereferenceable(4) %3, i32 noundef %4) #2 align 2 {
  %6 = alloca i32, align 4
  %7 = alloca ptr, align 8
  %8 = alloca i32, align 4
  %9 = alloca ptr, align 8
  %10 = alloca ptr, align 8
  %11 = alloca i32, align 4
  %12 = alloca i32, align 4
  %13 = alloca i8, align 1
  %14 = alloca i8, align 1
  %15 = alloca i32, align 4
  store ptr %0, ptr %7, align 8, !tbaa !10
  store i32 %1, ptr %8, align 4, !tbaa !12
  store ptr %2, ptr %9, align 8, !tbaa !56
  store ptr %3, ptr %10, align 8, !tbaa !57
  store i32 %4, ptr %11, align 4, !tbaa !12
  call void @llvm.lifetime.start.p0(i64 4, ptr %12) #6
  %16 = load ptr, ptr %10, align 8, !tbaa !57
  %17 = load i32, ptr %16, align 4, !tbaa !12
  %18 = add nsw i32 %17, 1
  store i32 %18, ptr %12, align 4, !tbaa !12
  %19 = load i32, ptr %12, align 4, !tbaa !12
  %20 = load i32, ptr %11, align 4, !tbaa !12
  %21 = icmp slt i32 %19, %20
  br i1 %21, label %25, label %22

22:                                               ; preds = %5
  %23 = load i32, ptr %11, align 4, !tbaa !12
  %24 = icmp slt i32 %23, 0
  br i1 %24, label %25, label %87

25:                                               ; preds = %22, %5
  call void @llvm.lifetime.start.p0(i64 1, ptr %13) #6
  %26 = load ptr, ptr %9, align 8, !tbaa !56
  %27 = load ptr, ptr %10, align 8, !tbaa !57
  %28 = load i32, ptr %27, align 4, !tbaa !12
  %29 = sext i32 %28 to i64
  %30 = getelementptr inbounds i8, ptr %26, i64 %29
  %31 = load i8, ptr %30, align 1, !tbaa !32
  store i8 %31, ptr %13, align 1, !tbaa !32
  call void @llvm.lifetime.start.p0(i64 1, ptr %14) #6
  %32 = load ptr, ptr %9, align 8, !tbaa !56
  %33 = load i32, ptr %12, align 4, !tbaa !12
  %34 = sext i32 %33 to i64
  %35 = getelementptr inbounds i8, ptr %32, i64 %34
  %36 = load i8, ptr %35, align 1, !tbaa !32
  store i8 %36, ptr %14, align 1, !tbaa !32
  %37 = load ptr, ptr %10, align 8, !tbaa !57
  %38 = load i32, ptr %37, align 4, !tbaa !12
  %39 = add nsw i32 %38, 2
  store i32 %39, ptr %37, align 4, !tbaa !12
  %40 = load i32, ptr %8, align 4, !tbaa !12
  %41 = icmp eq i32 %40, 226
  br i1 %41, label %42, label %63

42:                                               ; preds = %25
  %43 = load i8, ptr %13, align 1, !tbaa !32
  %44 = zext i8 %43 to i32
  %45 = icmp eq i32 %44, 128
  br i1 %45, label %46, label %63

46:                                               ; preds = %42
  %47 = load i8, ptr %14, align 1, !tbaa !32
  %48 = zext i8 %47 to i32
  %49 = icmp sle i32 128, %48
  br i1 %49, label %50, label %63

50:                                               ; preds = %46
  %51 = load i8, ptr %14, align 1, !tbaa !32
  %52 = zext i8 %51 to i32
  %53 = icmp sle i32 %52, 191
  br i1 %53, label %54, label %63

54:                                               ; preds = %50
  %55 = load ptr, ptr %7, align 8, !tbaa !10
  %56 = load i8, ptr %14, align 1, !tbaa !32
  %57 = zext i8 %56 to i32
  %58 = add nsw i32 256, %57
  %59 = sext i32 %58 to i64
  %60 = getelementptr inbounds i16, ptr %55, i64 %59
  %61 = load i16, ptr %60, align 2, !tbaa !30
  %62 = zext i16 %61 to i32
  store i32 %62, ptr %6, align 4
  store i32 1, ptr %15, align 4
  br label %84

63:                                               ; preds = %50, %46, %42, %25
  %64 = load i32, ptr %8, align 4, !tbaa !12
  %65 = icmp eq i32 %64, 239
  br i1 %65, label %66, label %82

66:                                               ; preds = %63
  %67 = load i8, ptr %13, align 1, !tbaa !32
  %68 = zext i8 %67 to i32
  %69 = icmp eq i32 %68, 191
  br i1 %69, label %70, label %82

70:                                               ; preds = %66
  %71 = load i8, ptr %14, align 1, !tbaa !32
  %72 = zext i8 %71 to i32
  %73 = icmp eq i32 %72, 190
  br i1 %73, label %74, label %75

74:                                               ; preds = %70
  store i32 3, ptr %6, align 4
  store i32 1, ptr %15, align 4
  br label %84

75:                                               ; preds = %70
  %76 = load i8, ptr %14, align 1, !tbaa !32
  %77 = zext i8 %76 to i32
  %78 = icmp eq i32 %77, 191
  br i1 %78, label %79, label %80

79:                                               ; preds = %75
  store i32 64680, ptr %6, align 4
  store i32 1, ptr %15, align 4
  br label %84

80:                                               ; preds = %75
  br label %81

81:                                               ; preds = %80
  br label %82

82:                                               ; preds = %81, %66, %63
  br label %83

83:                                               ; preds = %82
  store i32 0, ptr %15, align 4
  br label %84

84:                                               ; preds = %83, %79, %74, %54
  call void @llvm.lifetime.end.p0(i64 1, ptr %14) #6
  call void @llvm.lifetime.end.p0(i64 1, ptr %13) #6
  %85 = load i32, ptr %15, align 4
  switch i32 %85, label %88 [
    i32 0, label %86
  ]

86:                                               ; preds = %84
  br label %87

87:                                               ; preds = %86, %22
  store i32 1, ptr %6, align 4
  store i32 1, ptr %15, align 4
  br label %88

88:                                               ; preds = %87, %84
  call void @llvm.lifetime.end.p0(i64 4, ptr %12) #6
  %89 = load i32, ptr %6, align 4
  ret i32 %89
}