; Function Attrs: mustprogress nofree norecurse nosync nounwind willreturn memory(argmem: readwrite) uwtable
define noundef range(i32 0, 65536) i32 @_ZN6icu_7718CollationFastLatin10lookupUTF8EPKtiPKhRii(ptr noundef readonly captures(none) %0, i32 noundef %1, ptr noundef readonly captures(none) %2, ptr noundef nonnull align 4 captures(none) dereferenceable(4) %3, i32 noundef %4) local_unnamed_addr #7 align 2 {
  %6 = load i32, ptr %3, align 4, !tbaa !32
  %7 = add nsw i32 %6, 1
  %8 = icmp slt i32 %7, %4
  %9 = icmp slt i32 %4, 0
  %or.cond = or i1 %9, %8
  br i1 %or.cond, label %10, label %31

10:                                               ; preds = %5
  %11 = sext i32 %6 to i64
  %12 = getelementptr inbounds i8, ptr %2, i64 %11
  %13 = load i8, ptr %12, align 1, !tbaa !28
  %14 = sext i32 %7 to i64
  %15 = getelementptr inbounds i8, ptr %2, i64 %14
  %16 = load i8, ptr %15, align 1, !tbaa !28
  %17 = add nsw i32 %6, 2
  store i32 %17, ptr %3, align 4, !tbaa !32
  %18 = icmp eq i32 %1, 226
  %19 = icmp eq i8 %13, -128
  %or.cond4 = select i1 %18, i1 %19, i1 false
  %20 = icmp slt i8 %16, -64
  %or.cond10 = select i1 %or.cond4, i1 %20, i1 false
  br i1 %or.cond10, label %21, label %27

21:                                               ; preds = %10
  %22 = zext i8 %16 to i64
  %23 = or disjoint i64 %22, 256
  %24 = getelementptr inbounds nuw i16, ptr %0, i64 %23
  %25 = load i16, ptr %24, align 2, !tbaa !25
  %26 = zext i16 %25 to i32
  br label %31

27:                                               ; preds = %10
  %28 = icmp eq i32 %1, 239
  %29 = icmp eq i8 %13, -65
  %or.cond13 = select i1 %28, i1 %29, i1 false
  br i1 %or.cond13, label %30, label %31

30:                                               ; preds = %27
  %switch.selectcmp = icmp eq i8 %16, -65
  %switch.select = select i1 %switch.selectcmp, i32 64680, i32 1
  %switch.selectcmp37 = icmp eq i8 %16, -66
  %switch.select38 = select i1 %switch.selectcmp37, i32 3, i32 %switch.select
  br label %31

31:                                               ; preds = %30, %21, %5, %27
  %.1 = phi i32 [ 1, %27 ], [ 1, %5 ], [ %26, %21 ], [ %switch.select38, %30 ]
  ret i32 %.1
}